; Function Attrs: null_pointer_is_valid sspstrong uwtable
define internal void @dtap_rr_dtm_info(ptr noundef %0, ptr noundef %1, ptr noundef %2, i32 noundef %3, i32 noundef %4) #3 {
  %6 = icmp sgt i32 %4, 0
  br i1 %6, label %7, label %13

7:                                                ; preds = %5
  %8 = tail call zeroext i16 @elem_v(ptr noundef %0, ptr noundef %1, ptr noundef %2, i32 noundef 5, i32 noundef 18, i32 noundef %3, ptr noundef null)
  %.not = icmp eq i16 %8, 0
  br i1 %.not, label %13, label %9

9:                                                ; preds = %7
  %10 = zext i16 %8 to i32
  %11 = add i32 %3, %10
  %12 = sub nsw i32 %4, %10
  br label %16

13:                                               ; preds = %7, %5
  %14 = tail call ptr @get_gsm_a_msg_string(i32 noundef 5, i32 noundef 18)
  %15 = tail call ptr (ptr, ptr, ptr, ptr, i32, i32, ptr, ...) @proto_tree_add_expert_format(ptr noundef %1, ptr noundef %2, ptr noundef nonnull @ei_gsm_a_rr_missing_mandatory_element, ptr noundef %0, i32 noundef %3, i32 noundef 0, ptr noundef nonnull @.str.83, ptr noundef %14, ptr noundef nonnull @.str.84)
  br label %16

16:                                               ; preds = %13, %9
  %.042 = phi i32 [ %11, %9 ], [ %3, %13 ]
  %.0 = phi i32 [ %12, %9 ], [ %4, %13 ]
  %17 = icmp sgt i32 %.0, 0
  br i1 %17, label %18, label %23

18:                                               ; preds = %16
  %19 = tail call zeroext i16 @elem_lv(ptr noundef %0, ptr noundef %1, ptr noundef %2, i32 noundef 3, i32 noundef 21, i32 noundef %.042, i32 noundef %.0, ptr noundef null)
  %.not48 = icmp eq i16 %19, 0
  br i1 %.not48, label %23, label %20

20:                                               ; preds = %18
  %21 = zext i16 %19 to i32
  %22 = add i32 %.042, %21
  br label %26

23:                                               ; preds = %18, %16
  %24 = tail call ptr @get_gsm_a_msg_string(i32 noundef 3, i32 noundef 21)
  %25 = tail call ptr (ptr, ptr, ptr, ptr, i32, i32, ptr, ...) @proto_tree_add_expert_format(ptr noundef %1, ptr noundef %2, ptr noundef nonnull @ei_gsm_a_rr_missing_mandatory_element, ptr noundef %0, i32 noundef %.042, i32 noundef 0, ptr noundef nonnull @.str.83, ptr noundef %24, ptr noundef nonnull @.str.84)
  br label %26

26:                                               ; preds = %23, %20
  %.1 = phi i32 [ %22, %20 ], [ %.042, %23 ]
  %27 = sub i32 %.1, %3
  %28 = icmp ugt i32 %4, %27
  br i1 %28, label %29, label %32

29:                                               ; preds = %26
  %30 = sub nuw i32 %4, %27
  %31 = tail call ptr @proto_tree_add_expert(ptr noundef %1, ptr noundef %2, ptr noundef nonnull @ei_gsm_a_rr_extraneous_data, ptr noundef %0, i32 noundef %.1, i32 noundef %30)
  br label %32

32:                                               ; preds = %29, %26
  ret void
}